target datalayout = "e-m:e-p270:32:32-p271:32:32-p272:64:64-i64:64-i128:128-f80:128-n8:16:32:64-S128"
target triple = "x86_64-pc-linux-gnu"

%struct.hashmap = type { ptr, ptr, ptr, i32, i32, i32, i32, i8 }
%struct.hashmap_entry = type { ptr, i32 }

; Function Attrs: nounwind uwtable
define internal void @rehash(ptr noundef %0, i32 noundef %1) #0 {
  %3 = alloca ptr, align 8
  %4 = alloca i32, align 4
  %5 = alloca i32, align 4
  %6 = alloca i32, align 4
  %7 = alloca ptr, align 8
  %8 = alloca ptr, align 8
  %9 = alloca ptr, align 8
  %10 = alloca i32, align 4
  store ptr %0, ptr %3, align 8, !tbaa !21
  store i32 %1, ptr %4, align 4, !tbaa !9
  call void @llvm.lifetime.start.p0(i64 4, ptr %5) #9
  call void @llvm.lifetime.start.p0(i64 4, ptr %6) #9
  %11 = load ptr, ptr %3, align 8, !tbaa !21
  %12 = getelementptr inbounds nuw %struct.hashmap, ptr %11, i32 0, i32 4
  %13 = load i32, ptr %12, align 4, !tbaa !23
  store i32 %13, ptr %6, align 4, !tbaa !9
  call void @llvm.lifetime.start.p0(i64 8, ptr %7) #9
  %14 = load ptr, ptr %3, align 8, !tbaa !21
  %15 = getelementptr inbounds nuw %struct.hashmap, ptr %14, i32 0, i32 0
  %16 = load ptr, ptr %15, align 8, !tbaa !31
  store ptr %16, ptr %7, align 8, !tbaa !36
  %17 = load ptr, ptr %3, align 8, !tbaa !21
  %18 = load i32, ptr %4, align 4, !tbaa !9
  call void @alloc_table(ptr noundef %17, i32 noundef %18)
  store i32 0, ptr %5, align 4, !tbaa !9
  br label %19

19:                                               ; preds = %57, %2
  %20 = load i32, ptr %5, align 4, !tbaa !9
  %21 = load i32, ptr %6, align 4, !tbaa !9
  %22 = icmp ult i32 %20, %21
  br i1 %22, label %23, label %60

23:                                               ; preds = %19
  call void @llvm.lifetime.start.p0(i64 8, ptr %8) #9
  %24 = load ptr, ptr %7, align 8, !tbaa !36
  %25 = load i32, ptr %5, align 4, !tbaa !9
  %26 = zext i32 %25 to i64
  %27 = getelementptr inbounds nuw ptr, ptr %24, i64 %26
  %28 = load ptr, ptr %27, align 8, !tbaa !29
  store ptr %28, ptr %8, align 8, !tbaa !29
  br label %29

29:                                               ; preds = %32, %23
  %30 = load ptr, ptr %8, align 8, !tbaa !29
  %31 = icmp ne ptr %30, null
  br i1 %31, label %32, label %56

32:                                               ; preds = %29
  call void @llvm.lifetime.start.p0(i64 8, ptr %9) #9
  %33 = load ptr, ptr %8, align 8, !tbaa !29
  %34 = getelementptr inbounds nuw %struct.hashmap_entry, ptr %33, i32 0, i32 0
  %35 = load ptr, ptr %34, align 8, !tbaa !38
  store ptr %35, ptr %9, align 8, !tbaa !29
  call void @llvm.lifetime.start.p0(i64 4, ptr %10) #9
  %36 = load ptr, ptr %3, align 8, !tbaa !21
  %37 = load ptr, ptr %8, align 8, !tbaa !29
  %38 = call i32 @bucket(ptr noundef %36, ptr noundef %37)
  store i32 %38, ptr %10, align 4, !tbaa !9
  %39 = load ptr, ptr %3, align 8, !tbaa !21
  %40 = getelementptr inbounds nuw %struct.hashmap, ptr %39, i32 0, i32 0
  %41 = load ptr, ptr %40, align 8, !tbaa !31
  %42 = load i32, ptr %10, align 4, !tbaa !9
  %43 = zext i32 %42 to i64
  %44 = getelementptr inbounds nuw ptr, ptr %41, i64 %43
  %45 = load ptr, ptr %44, align 8, !tbaa !29
  %46 = load ptr, ptr %8, align 8, !tbaa !29
  %47 = getelementptr inbounds nuw %struct.hashmap_entry, ptr %46, i32 0, i32 0
  store ptr %45, ptr %47, align 8, !tbaa !38
  %48 = load ptr, ptr %8, align 8, !tbaa !29
  %49 = load ptr, ptr %3, align 8, !tbaa !21
  %50 = getelementptr inbounds nuw %struct.hashmap, ptr %49, i32 0, i32 0
  %51 = load ptr, ptr %50, align 8, !tbaa !31
  %52 = load i32, ptr %10, align 4, !tbaa !9
  %53 = zext i32 %52 to i64
  %54 = getelementptr inbounds nuw ptr, ptr %51, i64 %53
  store ptr %48, ptr %54, align 8, !tbaa !29
  %55 = load ptr, ptr %9, align 8, !tbaa !29
  store ptr %55, ptr %8, align 8, !tbaa !29
  call void @llvm.lifetime.end.p0(i64 4, ptr %10) #9
  call void @llvm.lifetime.end.p0(i64 8, ptr %9) #9
  br label %29, !llvm.loop !42

56:                                               ; preds = %29
  call void @llvm.lifetime.end.p0(i64 8, ptr %8) #9
  br label %57

57:                                               ; preds = %56
  %58 = load i32, ptr %5, align 4, !tbaa !9
  %59 = add i32 %58, 1
  store i32 %59, ptr %5, align 4, !tbaa !9
  br label %19, !llvm.loop !43

60:                                               ; preds = %19
  %61 = load ptr, ptr %7, align 8, !tbaa !36
  call void @free(ptr noundef %61) #9
  call void @llvm.lifetime.end.p0(i64 8, ptr %7) #9
  call void @llvm.lifetime.end.p0(i64 4, ptr %6) #9
  call void @llvm.lifetime.end.p0(i64 4, ptr %5) #9
  ret void
}

; Function Attrs: inlinehint nounwind uwtable
define internal i32 @bucket(ptr noundef %0, ptr noundef %1) #4 {
  %3 = alloca ptr, align 8
  %4 = alloca ptr, align 8
  store ptr %0, ptr %3, align 8, !tbaa !21
  store ptr %1, ptr %4, align 8, !tbaa !29
  %5 = load ptr, ptr %4, align 8, !tbaa !29
  %6 = getelementptr inbounds nuw %struct.hashmap_entry, ptr %5, i32 0, i32 1
  %7 = load i32, ptr %6, align 8, !tbaa !41
  %8 = load ptr, ptr %3, align 8, !tbaa !21
  %9 = getelementptr inbounds nuw %struct.hashmap, ptr %8, i32 0, i32 4
  %10 = load i32, ptr %9, align 4, !tbaa !23
  %11 = sub i32 %10, 1
  %12 = and i32 %7, %11
  ret i32 %12
}

; Function Attrs: nounwind uwtable
define internal void @alloc_table(ptr noundef %0, i32 noundef %1) #0 {
  %3 = alloca ptr, align 8
  %4 = alloca i32, align 4
  store ptr %0, ptr %3, align 8, !tbaa !21
  store i32 %1, ptr %4, align 4, !tbaa !9
  %5 = load i32, ptr %4, align 4, !tbaa !9
  %6 = load ptr, ptr %3, align 8, !tbaa !21
  %7 = getelementptr inbounds nuw %struct.hashmap, ptr %6, i32 0, i32 4
  store i32 %5, ptr %7, align 4, !tbaa !23
  %8 = load i32, ptr %4, align 4, !tbaa !9
  %9 = zext i32 %8 to i64
  %10 = call ptr @xcalloc(i64 noundef %9, i64 noundef 8)
  %11 = load ptr, ptr %3, align 8, !tbaa !21
  %12 = getelementptr inbounds nuw %struct.hashmap, ptr %11, i32 0, i32 0
  store ptr %10, ptr %12, align 8, !tbaa !31
  %13 = load i32, ptr %4, align 4, !tbaa !9
  %14 = zext i32 %13 to i64
  %15 = mul i64 %14, 80
  %16 = udiv i64 %15, 100
  %17 = trunc i64 %16 to i32
  %18 = load ptr, ptr %3, align 8, !tbaa !21
  %19 = getelementptr inbounds nuw %struct.hashmap, ptr %18, i32 0, i32 5
  store i32 %17, ptr %19, align 8, !tbaa !32
  %20 = load i32, ptr %4, align 4, !tbaa !9
  %21 = icmp ule i32 %20, 64
  br i1 %21, label %22, label %25

22:                                               ; preds = %2
  %23 = load ptr, ptr %3, align 8, !tbaa !21
  %24 = getelementptr inbounds nuw %struct.hashmap, ptr %23, i32 0, i32 6
  store i32 0, ptr %24, align 4, !tbaa !33
  br label %32

25:                                               ; preds = %2
  %26 = load ptr, ptr %3, align 8, !tbaa !21
  %27 = getelementptr inbounds nuw %struct.hashmap, ptr %26, i32 0, i32 5
  %28 = load i32, ptr %27, align 8, !tbaa !32
  %29 = udiv i32 %28, 5
  %30 = load ptr, ptr %3, align 8, !tbaa !21
  %31 = getelementptr inbounds nuw %struct.hashmap, ptr %30, i32 0, i32 6
  store i32 %29, ptr %31, align 4, !tbaa !33
  br label %32

32:                                               ; preds = %25, %22
  ret void
}

; Function Attrs: nounwind uwtable
define dso_local void @hashmap_add(ptr noundef %0, ptr noundef %1) #0 {
  %3 = alloca ptr, align 8
  %4 = alloca ptr, align 8
  %5 = alloca i32, align 4
  store ptr %0, ptr %3, align 8, !tbaa !21
  store ptr %1, ptr %4, align 8, !tbaa !29
  call void @llvm.lifetime.start.p0(i64 4, ptr %5) #9
  %6 = load ptr, ptr %3, align 8, !tbaa !21
  %7 = getelementptr inbounds nuw %struct.hashmap, ptr %6, i32 0, i32 0
  %8 = load ptr, ptr %7, align 8, !tbaa !31
  %9 = icmp ne ptr %8, null
  br i1 %9, label %12, label %10

10:                                               ; preds = %2
  %11 = load ptr, ptr %3, align 8, !tbaa !21
  call void @alloc_table(ptr noundef %11, i32 noundef 64)
  br label %12

12:                                               ; preds = %10, %2
  %13 = load ptr, ptr %3, align 8, !tbaa !21
  %14 = load ptr, ptr %4, align 8, !tbaa !29
  %15 = call i32 @bucket(ptr noundef %13, ptr noundef %14)
  store i32 %15, ptr %5, align 4, !tbaa !9
  %16 = load ptr, ptr %3, align 8, !tbaa !21
  %17 = getelementptr inbounds nuw %struct.hashmap, ptr %16, i32 0, i32 0
  %18 = load ptr, ptr %17, align 8, !tbaa !31
  %19 = load i32, ptr %5, align 4, !tbaa !9
  %20 = zext i32 %19 to i64
  %21 = getelementptr inbounds nuw ptr, ptr %18, i64 %20
  %22 = load ptr, ptr %21, align 8, !tbaa !29
  %23 = load ptr, ptr %4, align 8, !tbaa !29
  %24 = getelementptr inbounds nuw %struct.hashmap_entry, ptr %23, i32 0, i32 0
  store ptr %22, ptr %24, align 8, !tbaa !38
  %25 = load ptr, ptr %4, align 8, !tbaa !29
  %26 = load ptr, ptr %3, align 8, !tbaa !21
  %27 = getelementptr inbounds nuw %struct.hashmap, ptr %26, i32 0, i32 0
  %28 = load ptr, ptr %27, align 8, !tbaa !31
  %29 = load i32, ptr %5, align 4, !tbaa !9
  %30 = zext i32 %29 to i64
  %31 = getelementptr inbounds nuw ptr, ptr %28, i64 %30
  store ptr %25, ptr %31, align 8, !tbaa !29
  %32 = load ptr, ptr %3, align 8, !tbaa !21
  %33 = getelementptr inbounds nuw %struct.hashmap, ptr %32, i32 0, i32 7
  %34 = load i8, ptr %33, align 8
  %35 = and i8 %34, 1
  %36 = zext i8 %35 to i32
  %37 = icmp ne i32 %36, 0
  br i1 %37, label %38, label %57

38:                                               ; preds = %12
  %39 = load ptr, ptr %3, align 8, !tbaa !21
  %40 = getelementptr inbounds nuw %struct.hashmap, ptr %39, i32 0, i32 3
  %41 = load i32, ptr %40, align 8, !tbaa !34
  %42 = add i32 %41, 1
  store i32 %42, ptr %40, align 8, !tbaa !34
  %43 = load ptr, ptr %3, align 8, !tbaa !21
  %44 = getelementptr inbounds nuw %struct.hashmap, ptr %43, i32 0, i32 3
  %45 = load i32, ptr %44, align 8, !tbaa !34
  %46 = load ptr, ptr %3, align 8, !tbaa !21
  %47 = getelementptr inbounds nuw %struct.hashmap, ptr %46, i32 0, i32 5
  %48 = load i32, ptr %47, align 8, !tbaa !32
  %49 = icmp ugt i32 %45, %48
  br i1 %49, label %50, label %56

50:                                               ; preds = %38
  %51 = load ptr, ptr %3, align 8, !tbaa !21
  %52 = load ptr, ptr %3, align 8, !tbaa !21
  %53 = getelementptr inbounds nuw %struct.hashmap, ptr %52, i32 0, i32 4
  %54 = load i32, ptr %53, align 4, !tbaa !23
  %55 = shl i32 %54, 2
  call void @rehash(ptr noundef %51, i32 noundef %55)
  br label %56

56:                                               ; preds = %50, %38
  br label %57

57:                                               ; preds = %56, %12
  call void @llvm.lifetime.end.p0(i64 4, ptr %5) #9
  ret void
}