; Function Attrs: nounwind uwtable
define dso_local void @hashmap_add(ptr noundef captures(none) %0, ptr noundef initializes((0, 8)) %1) local_unnamed_addr #3 {
  %3 = load ptr, ptr %0, align 8, !tbaa !21
  %.not = icmp eq ptr %3, null
  br i1 %.not, label %4, label %9

4:                                                ; preds = %2
  %5 = getelementptr inbounds nuw i8, ptr %0, i64 28
  store i32 64, ptr %5, align 4, !tbaa !13
  %6 = tail call ptr @xcalloc(i64 noundef 64, i64 noundef 8) #15
  store ptr %6, ptr %0, align 8, !tbaa !21
  %7 = getelementptr inbounds nuw i8, ptr %0, i64 32
  store i32 51, ptr %7, align 8, !tbaa !22
  %8 = getelementptr inbounds nuw i8, ptr %0, i64 36
  store i32 0, ptr %8, align 4, !tbaa !23
  br label %9

9:                                                ; preds = %4, %2
  %10 = phi ptr [ %6, %4 ], [ %3, %2 ]
  %11 = getelementptr i8, ptr %0, i64 28
  %.val = load i32, ptr %11, align 4, !tbaa !13
  %12 = getelementptr i8, ptr %1, i64 8
  %.val16 = load i32, ptr %12, align 8, !tbaa !30
  %13 = add i32 %.val, -1
  %14 = and i32 %.val16, %13
  %15 = zext i32 %14 to i64
  %16 = getelementptr inbounds nuw ptr, ptr %10, i64 %15
  %17 = load ptr, ptr %16, align 8, !tbaa !24
  store ptr %17, ptr %1, align 8, !tbaa !26
  store ptr %1, ptr %16, align 8, !tbaa !24
  %18 = getelementptr inbounds nuw i8, ptr %0, i64 40
  %19 = load i8, ptr %18, align 8
  %20 = and i8 %19, 1
  %.not15 = icmp eq i8 %20, 0
  br i1 %.not15, label %48, label %21

21:                                               ; preds = %9
  %22 = getelementptr inbounds nuw i8, ptr %0, i64 24
  %23 = load i32, ptr %22, align 8, !tbaa !29
  %24 = add i32 %23, 1
  store i32 %24, ptr %22, align 8, !tbaa !29
  %25 = getelementptr inbounds nuw i8, ptr %0, i64 32
  %26 = load i32, ptr %25, align 8, !tbaa !22
  %27 = icmp ugt i32 %24, %26
  br i1 %27, label %28, label %48

28:                                               ; preds = %21
  %29 = shl i32 %.val, 2
  store i32 %29, ptr %11, align 4, !tbaa !13
  %30 = zext i32 %29 to i64
  %31 = tail call ptr @xcalloc(i64 noundef %30, i64 noundef 8) #15
  store ptr %31, ptr %0, align 8, !tbaa !21
  %32 = mul nuw nsw i64 %30, 80
  %33 = udiv i64 %32, 100
  %34 = trunc nuw i64 %33 to i32
  store i32 %34, ptr %25, align 8, !tbaa !22
  %35 = icmp ult i32 %29, 65
  %36 = udiv i32 %34, 5
  %.sink.i.i = select i1 %35, i32 0, i32 %36
  %37 = getelementptr inbounds nuw i8, ptr %0, i64 36
  store i32 %.sink.i.i, ptr %37, align 4, !tbaa !23
  %.not27.i = icmp eq i32 %.val, 0
  br i1 %.not27.i, label %rehash.exit, label %.lr.ph25.preheader.i

.lr.ph25.preheader.i:                             ; preds = %28
  %wide.trip.count.i = zext i32 %.val to i64
  br label %.lr.ph25.i

.lr.ph25.i:                                       ; preds = %._crit_edge.i, %.lr.ph25.preheader.i
  %indvars.iv.i = phi i64 [ 0, %.lr.ph25.preheader.i ], [ %indvars.iv.next.i, %._crit_edge.i ]
  %38 = getelementptr inbounds nuw ptr, ptr %10, i64 %indvars.iv.i
  %39 = load ptr, ptr %38, align 8, !tbaa !24
  %.not21.i = icmp eq ptr %39, null
  br i1 %.not21.i, label %._crit_edge.i, label %.lr.ph.i

.lr.ph.i:                                         ; preds = %.lr.ph25.i
  %.val.i = load i32, ptr %11, align 4, !tbaa !13
  %40 = add i32 %.val.i, -1
  br label %41

41:                                               ; preds = %41, %.lr.ph.i
  %.02022.i = phi ptr [ %39, %.lr.ph.i ], [ %42, %41 ]
  %42 = load ptr, ptr %.02022.i, align 8, !tbaa !26
  %43 = getelementptr i8, ptr %.02022.i, i64 8
  %.020.val.i = load i32, ptr %43, align 8, !tbaa !30
  %44 = and i32 %.020.val.i, %40
  %45 = zext i32 %44 to i64
  %46 = getelementptr inbounds nuw ptr, ptr %31, i64 %45
  %47 = load ptr, ptr %46, align 8, !tbaa !24
  store ptr %47, ptr %.02022.i, align 8, !tbaa !26
  store ptr %.02022.i, ptr %46, align 8, !tbaa !24
  %.not.i = icmp eq ptr %42, null
  br i1 %.not.i, label %._crit_edge.i, label %41, !llvm.loop !33

._crit_edge.i:                                    ; preds = %41, %.lr.ph25.i
  %indvars.iv.next.i = add nuw nsw i64 %indvars.iv.i, 1
  %exitcond.not.i = icmp eq i64 %indvars.iv.next.i, %wide.trip.count.i
  br i1 %exitcond.not.i, label %rehash.exit, label %.lr.ph25.i, !llvm.loop !34

rehash.exit:                                      ; preds = %._crit_edge.i, %28
  tail call void @free(ptr noundef %10) #15
  br label %48

48:                                               ; preds = %21, %rehash.exit, %9
  ret void
}